target datalayout = "e-m:e-p270:32:32-p271:32:32-p272:64:64-i64:64-i128:128-f80:128-n8:16:32:64-S128"
target triple = "x86_64-pc-linux-gnu"

%class.MD5 = type { i8, [64 x i8], [2 x i32], [4 x i32], [16 x i8] }

; Function Attrs: mustprogress nounwind uwtable
define void @_ZN3MD54initEv(ptr noundef nonnull align 4 dereferenceable(108) %0) #5 align 2 {
  %2 = alloca ptr, align 8
  store ptr %0, ptr %2, align 8, !tbaa !6
  %3 = load ptr, ptr %2, align 8
  %4 = getelementptr inbounds nuw %class.MD5, ptr %3, i32 0, i32 0
  store i8 0, ptr %4, align 4, !tbaa !11
  %5 = getelementptr inbounds nuw %class.MD5, ptr %3, i32 0, i32 2
  %6 = getelementptr inbounds [2 x i32], ptr %5, i64 0, i64 0
  store i32 0, ptr %6, align 4, !tbaa !14
  %7 = getelementptr inbounds nuw %class.MD5, ptr %3, i32 0, i32 2
  %8 = getelementptr inbounds [2 x i32], ptr %7, i64 0, i64 1
  store i32 0, ptr %8, align 4, !tbaa !14
  %9 = getelementptr inbounds nuw %class.MD5, ptr %3, i32 0, i32 3
  %10 = getelementptr inbounds [4 x i32], ptr %9, i64 0, i64 0
  store i32 1732584193, ptr %10, align 4, !tbaa !14
  %11 = getelementptr inbounds nuw %class.MD5, ptr %3, i32 0, i32 3
  %12 = getelementptr inbounds [4 x i32], ptr %11, i64 0, i64 1
  store i32 -271733879, ptr %12, align 4, !tbaa !14
  %13 = getelementptr inbounds nuw %class.MD5, ptr %3, i32 0, i32 3
  %14 = getelementptr inbounds [4 x i32], ptr %13, i64 0, i64 2
  store i32 -1732584194, ptr %14, align 4, !tbaa !14
  %15 = getelementptr inbounds nuw %class.MD5, ptr %3, i32 0, i32 3
  %16 = getelementptr inbounds [4 x i32], ptr %15, i64 0, i64 3
  store i32 271733878, ptr %16, align 4, !tbaa !14
  ret void
}

; Function Attrs: mustprogress uwtable
define void @_ZN3MD5C2Ev(ptr noundef nonnull align 4 dereferenceable(108) %0) unnamed_addr #4 align 2 {
  %2 = alloca ptr, align 8
  store ptr %0, ptr %2, align 8, !tbaa !6
  %3 = load ptr, ptr %2, align 8
  call void @_ZN3MD54initEv(ptr noundef nonnull align 4 dereferenceable(108) %3)
  ret void
}